target datalayout = "e-m:e-p270:32:32-p271:32:32-p272:64:64-i64:64-i128:128-f80:128-n8:16:32:64-S128"
target triple = "x86_64-pc-linux-gnu"

%struct.hpdata_s = type { ptr, i64, i8, i8, i8, i8, i8, %struct.nstime_t, i8, i8, i8, i8, i8, %union.anon, %struct.anon.0, %struct.anon.1, i64, i64, [8 x i64], i64, [8 x i64] }
%struct.nstime_t = type { i64 }
%union.anon = type { %struct.hpdata_age_heap_link_t }
%struct.hpdata_age_heap_link_t = type { %struct.phn_link_s }
%struct.phn_link_s = type { ptr, ptr, ptr }
%struct.anon.0 = type { ptr, ptr }
%struct.anon.1 = type { ptr, ptr }
%struct.hpdata_purge_state_s = type { i64, i64, [8 x i64], i64 }

; Function Attrs: inlinehint nounwind uwtable
define internal void @fb_bit_and(ptr noundef %0, ptr noundef %1, ptr noundef %2, i64 noundef %3) #3 {
  %5 = alloca ptr, align 8
  %6 = alloca ptr, align 8
  %7 = alloca ptr, align 8
  %8 = alloca i64, align 8
  %9 = alloca i64, align 8
  %10 = alloca i64, align 8
  store ptr %0, ptr %5, align 8, !tbaa !40
  store ptr %1, ptr %6, align 8, !tbaa !40
  store ptr %2, ptr %7, align 8, !tbaa !40
  store i64 %3, ptr %8, align 8, !tbaa !13
  call void @llvm.lifetime.start.p0(i64 8, ptr %9) #7
  %11 = load i64, ptr %8, align 8, !tbaa !13
  %12 = udiv i64 %11, 64
  %13 = load i64, ptr %8, align 8, !tbaa !13
  %14 = urem i64 %13, 64
  %15 = icmp eq i64 %14, 0
  %16 = select i1 %15, i32 0, i32 1
  %17 = sext i32 %16 to i64
  %18 = add i64 %12, %17
  store i64 %18, ptr %9, align 8, !tbaa !13
  call void @llvm.lifetime.start.p0(i64 8, ptr %10) #7
  store i64 0, ptr %10, align 8, !tbaa !13
  br label %19

19:                                               ; preds = %37, %4
  %20 = load i64, ptr %10, align 8, !tbaa !13
  %21 = load i64, ptr %9, align 8, !tbaa !13
  %22 = icmp ult i64 %20, %21
  br i1 %22, label %24, label %23

23:                                               ; preds = %19
  call void @llvm.lifetime.end.p0(i64 8, ptr %10) #7
  br label %40

24:                                               ; preds = %19
  %25 = load ptr, ptr %6, align 8, !tbaa !40
  %26 = load i64, ptr %10, align 8, !tbaa !13
  %27 = getelementptr inbounds nuw i64, ptr %25, i64 %26
  %28 = load i64, ptr %27, align 8, !tbaa !13
  %29 = load ptr, ptr %7, align 8, !tbaa !40
  %30 = load i64, ptr %10, align 8, !tbaa !13
  %31 = getelementptr inbounds nuw i64, ptr %29, i64 %30
  %32 = load i64, ptr %31, align 8, !tbaa !13
  %33 = and i64 %28, %32
  %34 = load ptr, ptr %5, align 8, !tbaa !40
  %35 = load i64, ptr %10, align 8, !tbaa !13
  %36 = getelementptr inbounds nuw i64, ptr %34, i64 %35
  store i64 %33, ptr %36, align 8, !tbaa !13
  br label %37

37:                                               ; preds = %24
  %38 = load i64, ptr %10, align 8, !tbaa !13
  %39 = add i64 %38, 1
  store i64 %39, ptr %10, align 8, !tbaa !13
  br label %19

40:                                               ; preds = %23
  call void @llvm.lifetime.end.p0(i64 8, ptr %9) #7
  ret void
}

; Function Attrs: inlinehint nounwind uwtable
define internal void @fb_bit_not(ptr noundef %0, ptr noundef %1, i64 noundef %2) #3 {
  %4 = alloca ptr, align 8
  %5 = alloca ptr, align 8
  %6 = alloca i64, align 8
  %7 = alloca i64, align 8
  %8 = alloca i64, align 8
  store ptr %0, ptr %4, align 8, !tbaa !40
  store ptr %1, ptr %5, align 8, !tbaa !40
  store i64 %2, ptr %6, align 8, !tbaa !13
  call void @llvm.lifetime.start.p0(i64 8, ptr %7) #7
  %9 = load i64, ptr %6, align 8, !tbaa !13
  %10 = udiv i64 %9, 64
  %11 = load i64, ptr %6, align 8, !tbaa !13
  %12 = urem i64 %11, 64
  %13 = icmp eq i64 %12, 0
  %14 = select i1 %13, i32 0, i32 1
  %15 = sext i32 %14 to i64
  %16 = add i64 %10, %15
  store i64 %16, ptr %7, align 8, !tbaa !13
  call void @llvm.lifetime.start.p0(i64 8, ptr %8) #7
  store i64 0, ptr %8, align 8, !tbaa !13
  br label %17

17:                                               ; preds = %31, %3
  %18 = load i64, ptr %8, align 8, !tbaa !13
  %19 = load i64, ptr %7, align 8, !tbaa !13
  %20 = icmp ult i64 %18, %19
  br i1 %20, label %22, label %21

21:                                               ; preds = %17
  call void @llvm.lifetime.end.p0(i64 8, ptr %8) #7
  br label %34

22:                                               ; preds = %17
  %23 = load ptr, ptr %5, align 8, !tbaa !40
  %24 = load i64, ptr %8, align 8, !tbaa !13
  %25 = getelementptr inbounds nuw i64, ptr %23, i64 %24
  %26 = load i64, ptr %25, align 8, !tbaa !13
  %27 = xor i64 %26, -1
  %28 = load ptr, ptr %4, align 8, !tbaa !40
  %29 = load i64, ptr %8, align 8, !tbaa !13
  %30 = getelementptr inbounds nuw i64, ptr %28, i64 %29
  store i64 %27, ptr %30, align 8, !tbaa !13
  br label %31

31:                                               ; preds = %22
  %32 = load i64, ptr %8, align 8, !tbaa !13
  %33 = add i64 %32, 1
  store i64 %33, ptr %8, align 8, !tbaa !13
  br label %17

34:                                               ; preds = %21
  call void @llvm.lifetime.end.p0(i64 8, ptr %7) #7
  ret void
}

; Function Attrs: inlinehint nounwind uwtable
define internal void @hpdata_assert_consistent(ptr noundef %0) #3 {
  %2 = alloca ptr, align 8
  store ptr %0, ptr %2, align 8, !tbaa !14
  br label %3

3:                                                ; preds = %1
  br label %4

4:                                                ; preds = %3
  ret void
}

; Function Attrs: nounwind uwtable
define void @duckdb_je_hpdata_purge_end(ptr noundef %0, ptr noundef %1) #0 {
  %3 = alloca ptr, align 8
  %4 = alloca ptr, align 8
  store ptr %0, ptr %3, align 8, !tbaa !14
  store ptr %1, ptr %4, align 8, !tbaa !42
  br label %5

5:                                                ; preds = %2
  br label %6

6:                                                ; preds = %5
  %7 = load ptr, ptr %3, align 8, !tbaa !14
  call void @hpdata_assert_consistent(ptr noundef %7)
  br label %8

8:                                                ; preds = %6
  br label %9

9:                                                ; preds = %8
  br label %10

10:                                               ; preds = %9
  br label %11

11:                                               ; preds = %10
  br label %12

12:                                               ; preds = %11
  br label %13

13:                                               ; preds = %12
  %14 = load ptr, ptr %4, align 8, !tbaa !42
  %15 = getelementptr inbounds nuw %struct.hpdata_purge_state_s, ptr %14, i32 0, i32 2
  %16 = getelementptr inbounds [8 x i64], ptr %15, i64 0, i64 0
  %17 = load ptr, ptr %4, align 8, !tbaa !42
  %18 = getelementptr inbounds nuw %struct.hpdata_purge_state_s, ptr %17, i32 0, i32 2
  %19 = getelementptr inbounds [8 x i64], ptr %18, i64 0, i64 0
  call void @fb_bit_not(ptr noundef %16, ptr noundef %19, i64 noundef 512)
  %20 = load ptr, ptr %3, align 8, !tbaa !14
  %21 = getelementptr inbounds nuw %struct.hpdata_s, ptr %20, i32 0, i32 20
  %22 = getelementptr inbounds [8 x i64], ptr %21, i64 0, i64 0
  %23 = load ptr, ptr %3, align 8, !tbaa !14
  %24 = getelementptr inbounds nuw %struct.hpdata_s, ptr %23, i32 0, i32 20
  %25 = getelementptr inbounds [8 x i64], ptr %24, i64 0, i64 0
  %26 = load ptr, ptr %4, align 8, !tbaa !42
  %27 = getelementptr inbounds nuw %struct.hpdata_purge_state_s, ptr %26, i32 0, i32 2
  %28 = getelementptr inbounds [8 x i64], ptr %27, i64 0, i64 0
  call void @fb_bit_and(ptr noundef %22, ptr noundef %25, ptr noundef %28, i64 noundef 512)
  br label %29

29:                                               ; preds = %13
  br label %30

30:                                               ; preds = %29
  %31 = load ptr, ptr %4, align 8, !tbaa !42
  %32 = getelementptr inbounds nuw %struct.hpdata_purge_state_s, ptr %31, i32 0, i32 1
  %33 = load i64, ptr %32, align 8, !tbaa !47
  %34 = load ptr, ptr %3, align 8, !tbaa !14
  %35 = getelementptr inbounds nuw %struct.hpdata_s, ptr %34, i32 0, i32 19
  %36 = load i64, ptr %35, align 8, !tbaa !36
  %37 = sub i64 %36, %33
  store i64 %37, ptr %35, align 8, !tbaa !36
  %38 = load ptr, ptr %3, align 8, !tbaa !14
  call void @hpdata_assert_consistent(ptr noundef %38)
  ret void
}